target datalayout = "e-m:e-p270:32:32-p271:32:32-p272:64:64-i64:64-i128:128-f80:128-n8:16:32:64-S128"
target triple = "x86_64-pc-linux-gnu"

%"class.sat::literal" = type { i32 }
%class.app = type { %class.expr, ptr, i32, %struct.app_flags, [0 x ptr] }
%class.expr = type { %class.ast }
%class.ast = type { i32, i32, i32, i32 }
%struct.app_flags = type <{ i16, i8, i8 }>

; Function Attrs: mustprogress nounwind uwtable
define linkonce_odr hidden i32 @_ZN3satcoENS_7literalE(i32 %0) #6 comdat {
  %2 = alloca %"class.sat::literal", align 4
  %3 = alloca %"class.sat::literal", align 4
  %4 = getelementptr inbounds nuw %"class.sat::literal", ptr %3, i32 0, i32 0
  store i32 %0, ptr %4, align 4
  %5 = getelementptr inbounds nuw %"class.sat::literal", ptr %3, i32 0, i32 0
  %6 = load i32, ptr %5, align 4, !tbaa !102
  %7 = xor i32 %6, 1
  %8 = getelementptr inbounds nuw %"class.sat::literal", ptr %3, i32 0, i32 0
  store i32 %7, ptr %8, align 4, !tbaa !102
  call void @llvm.memcpy.p0.p0.i64(ptr align 4 %2, ptr align 4 %3, i64 4, i1 false), !tbaa.struct !99
  %9 = getelementptr inbounds nuw %"class.sat::literal", ptr %2, i32 0, i32 0
  %10 = load i32, ptr %9, align 4
  ret i32 %10
}

; Function Attrs: mustprogress nounwind uwtable
define linkonce_odr hidden noundef ptr @_ZNK3app7get_argEj(ptr noundef nonnull align 8 dereferenceable(32) %0, i32 noundef %1) #6 comdat align 2 {
  %3 = alloca ptr, align 8
  %4 = alloca i32, align 4
  store ptr %0, ptr %3, align 8, !tbaa !105
  store i32 %1, ptr %4, align 4, !tbaa !57
  %5 = load ptr, ptr %3, align 8
  %6 = getelementptr inbounds nuw %class.app, ptr %5, i32 0, i32 4
  %7 = load i32, ptr %4, align 4, !tbaa !57
  %8 = zext i32 %7 to i64
  %9 = getelementptr inbounds nuw [0 x ptr], ptr %6, i64 0, i64 %8
  %10 = load ptr, ptr %9, align 8, !tbaa !93
  ret ptr %10
}

; Function Attrs: mustprogress uwtable
define hidden void @_ZN2bv6solver16internalize_xor3EP3app(ptr noundef nonnull align 8 dereferenceable(640) %0, ptr noundef %1) #4 align 2 {
  %3 = alloca ptr, align 8
  %4 = alloca ptr, align 8
  %5 = alloca %"class.sat::literal", align 4
  %6 = alloca %"class.sat::literal", align 4
  %7 = alloca %"class.sat::literal", align 4
  %8 = alloca %"class.sat::literal", align 4
  %9 = alloca %"class.sat::literal", align 4
  %10 = alloca %"class.sat::literal", align 4
  %11 = alloca %"class.sat::literal", align 4
  %12 = alloca %"class.sat::literal", align 4
  %13 = alloca %"class.sat::literal", align 4
  %14 = alloca %"class.sat::literal", align 4
  %15 = alloca %"class.sat::literal", align 4
  %16 = alloca %"class.sat::literal", align 4
  %17 = alloca %"class.sat::literal", align 4
  %18 = alloca %"class.sat::literal", align 4
  %19 = alloca %"class.sat::literal", align 4
  %20 = alloca %"class.sat::literal", align 4
  %21 = alloca %"class.sat::literal", align 4
  %22 = alloca %"class.sat::literal", align 4
  %23 = alloca %"class.sat::literal", align 4
  %24 = alloca %"class.sat::literal", align 4
  %25 = alloca %"class.sat::literal", align 4
  %26 = alloca %"class.sat::literal", align 4
  %27 = alloca %"class.sat::literal", align 4
  %28 = alloca %"class.sat::literal", align 4
  %29 = alloca %"class.sat::literal", align 4
  %30 = alloca %"class.sat::literal", align 4
  %31 = alloca %"class.sat::literal", align 4
  %32 = alloca %"class.sat::literal", align 4
  %33 = alloca %"class.sat::literal", align 4
  %34 = alloca %"class.sat::literal", align 4
  %35 = alloca %"class.sat::literal", align 4
  %36 = alloca %"class.sat::literal", align 4
  %37 = alloca %"class.sat::literal", align 4
  %38 = alloca %"class.sat::literal", align 4
  %39 = alloca %"class.sat::literal", align 4
  %40 = alloca %"class.sat::literal", align 4
  %41 = alloca %"class.sat::literal", align 4
  %42 = alloca %"class.sat::literal", align 4
  %43 = alloca %"class.sat::literal", align 4
  %44 = alloca %"class.sat::literal", align 4
  %45 = alloca %"class.sat::literal", align 4
  %46 = alloca %"class.sat::literal", align 4
  %47 = alloca %"class.sat::literal", align 4
  %48 = alloca %"class.sat::literal", align 4
  %49 = alloca %"class.sat::literal", align 4
  %50 = alloca %"class.sat::literal", align 4
  %51 = alloca %"class.sat::literal", align 4
  %52 = alloca %"class.sat::literal", align 4
  %53 = alloca %"class.sat::literal", align 4
  %54 = alloca %"class.sat::literal", align 4
  %55 = alloca %"class.sat::literal", align 4
  %56 = alloca %"class.sat::literal", align 4
  store ptr %0, ptr %3, align 8, !tbaa !3
  store ptr %1, ptr %4, align 8, !tbaa !105
  %57 = load ptr, ptr %3, align 8
  call void @llvm.lifetime.start.p0(i64 4, ptr %5) #3
  %58 = load ptr, ptr %4, align 8, !tbaa !105
  %59 = call i32 @_ZNK3euf13th_euf_solver12expr2literalEP4expr(ptr noundef nonnull align 8 dereferenceable(108) %57, ptr noundef %58)
  %60 = getelementptr inbounds nuw %"class.sat::literal", ptr %5, i32 0, i32 0
  store i32 %59, ptr %60, align 4
  call void @llvm.lifetime.start.p0(i64 4, ptr %6) #3
  %61 = load ptr, ptr %4, align 8, !tbaa !105
  %62 = call noundef ptr @_ZNK3app7get_argEj(ptr noundef nonnull align 8 dereferenceable(32) %61, i32 noundef 0)
  %63 = call i32 @_ZNK3euf13th_euf_solver12expr2literalEP4expr(ptr noundef nonnull align 8 dereferenceable(108) %57, ptr noundef %62)
  %64 = getelementptr inbounds nuw %"class.sat::literal", ptr %6, i32 0, i32 0
  store i32 %63, ptr %64, align 4
  call void @llvm.lifetime.start.p0(i64 4, ptr %7) #3
  %65 = load ptr, ptr %4, align 8, !tbaa !105
  %66 = call noundef ptr @_ZNK3app7get_argEj(ptr noundef nonnull align 8 dereferenceable(32) %65, i32 noundef 1)
  %67 = call i32 @_ZNK3euf13th_euf_solver12expr2literalEP4expr(ptr noundef nonnull align 8 dereferenceable(108) %57, ptr noundef %66)
  %68 = getelementptr inbounds nuw %"class.sat::literal", ptr %7, i32 0, i32 0
  store i32 %67, ptr %68, align 4
  call void @llvm.lifetime.start.p0(i64 4, ptr %8) #3
  %69 = load ptr, ptr %4, align 8, !tbaa !105
  %70 = call noundef ptr @_ZNK3app7get_argEj(ptr noundef nonnull align 8 dereferenceable(32) %69, i32 noundef 2)
  %71 = call i32 @_ZNK3euf13th_euf_solver12expr2literalEP4expr(ptr noundef nonnull align 8 dereferenceable(108) %57, ptr noundef %70)
  %72 = getelementptr inbounds nuw %"class.sat::literal", ptr %8, i32 0, i32 0
  store i32 %71, ptr %72, align 4
  call void @llvm.memcpy.p0.p0.i64(ptr align 4 %10, ptr align 4 %5, i64 4, i1 false), !tbaa.struct !99
  %73 = getelementptr inbounds nuw %"class.sat::literal", ptr %10, i32 0, i32 0
  %74 = load i32, ptr %73, align 4
  %75 = call i32 @_ZN3satcoENS_7literalE(i32 %74)
  %76 = getelementptr inbounds nuw %"class.sat::literal", ptr %9, i32 0, i32 0
  store i32 %75, ptr %76, align 4
  call void @llvm.memcpy.p0.p0.i64(ptr align 4 %11, ptr align 4 %6, i64 4, i1 false), !tbaa.struct !99
  call void @llvm.memcpy.p0.p0.i64(ptr align 4 %12, ptr align 4 %7, i64 4, i1 false), !tbaa.struct !99
  call void @llvm.memcpy.p0.p0.i64(ptr align 4 %13, ptr align 4 %8, i64 4, i1 false), !tbaa.struct !99
  %77 = getelementptr inbounds nuw %"class.sat::literal", ptr %9, i32 0, i32 0
  %78 = load i32, ptr %77, align 4
  %79 = getelementptr inbounds nuw %"class.sat::literal", ptr %11, i32 0, i32 0
  %80 = load i32, ptr %79, align 4
  %81 = getelementptr inbounds nuw %"class.sat::literal", ptr %12, i32 0, i32 0
  %82 = load i32, ptr %81, align 4
  %83 = getelementptr inbounds nuw %"class.sat::literal", ptr %13, i32 0, i32 0
  %84 = load i32, ptr %83, align 4
  %85 = call noundef zeroext i1 @_ZN3euf13th_euf_solver10add_clauseEN3sat7literalES2_S2_S2_PKNS_13th_proof_hintE(ptr noundef nonnull align 8 dereferenceable(108) %57, i32 %78, i32 %80, i32 %82, i32 %84, ptr noundef null)
  call void @llvm.memcpy.p0.p0.i64(ptr align 4 %15, ptr align 4 %5, i64 4, i1 false), !tbaa.struct !99
  %86 = getelementptr inbounds nuw %"class.sat::literal", ptr %15, i32 0, i32 0
  %87 = load i32, ptr %86, align 4
  %88 = call i32 @_ZN3satcoENS_7literalE(i32 %87)
  %89 = getelementptr inbounds nuw %"class.sat::literal", ptr %14, i32 0, i32 0
  store i32 %88, ptr %89, align 4
  call void @llvm.memcpy.p0.p0.i64(ptr align 4 %17, ptr align 4 %6, i64 4, i1 false), !tbaa.struct !99
  %90 = getelementptr inbounds nuw %"class.sat::literal", ptr %17, i32 0, i32 0
  %91 = load i32, ptr %90, align 4
  %92 = call i32 @_ZN3satcoENS_7literalE(i32 %91)
  %93 = getelementptr inbounds nuw %"class.sat::literal", ptr %16, i32 0, i32 0
  store i32 %92, ptr %93, align 4
  call void @llvm.memcpy.p0.p0.i64(ptr align 4 %19, ptr align 4 %7, i64 4, i1 false), !tbaa.struct !99
  %94 = getelementptr inbounds nuw %"class.sat::literal", ptr %19, i32 0, i32 0
  %95 = load i32, ptr %94, align 4
  %96 = call i32 @_ZN3satcoENS_7literalE(i32 %95)
  %97 = getelementptr inbounds nuw %"class.sat::literal", ptr %18, i32 0, i32 0
  store i32 %96, ptr %97, align 4
  call void @llvm.memcpy.p0.p0.i64(ptr align 4 %20, ptr align 4 %8, i64 4, i1 false), !tbaa.struct !99
  %98 = getelementptr inbounds nuw %"class.sat::literal", ptr %14, i32 0, i32 0
  %99 = load i32, ptr %98, align 4
  %100 = getelementptr inbounds nuw %"class.sat::literal", ptr %16, i32 0, i32 0
  %101 = load i32, ptr %100, align 4
  %102 = getelementptr inbounds nuw %"class.sat::literal", ptr %18, i32 0, i32 0
  %103 = load i32, ptr %102, align 4
  %104 = getelementptr inbounds nuw %"class.sat::literal", ptr %20, i32 0, i32 0
  %105 = load i32, ptr %104, align 4
  %106 = call noundef zeroext i1 @_ZN3euf13th_euf_solver10add_clauseEN3sat7literalES2_S2_S2_PKNS_13th_proof_hintE(ptr noundef nonnull align 8 dereferenceable(108) %57, i32 %99, i32 %101, i32 %103, i32 %105, ptr noundef null)
  call void @llvm.memcpy.p0.p0.i64(ptr align 4 %22, ptr align 4 %5, i64 4, i1 false), !tbaa.struct !99
  %107 = getelementptr inbounds nuw %"class.sat::literal", ptr %22, i32 0, i32 0
  %108 = load i32, ptr %107, align 4
  %109 = call i32 @_ZN3satcoENS_7literalE(i32 %108)
  %110 = getelementptr inbounds nuw %"class.sat::literal", ptr %21, i32 0, i32 0
  store i32 %109, ptr %110, align 4
  call void @llvm.memcpy.p0.p0.i64(ptr align 4 %24, ptr align 4 %6, i64 4, i1 false), !tbaa.struct !99
  %111 = getelementptr inbounds nuw %"class.sat::literal", ptr %24, i32 0, i32 0
  %112 = load i32, ptr %111, align 4
  %113 = call i32 @_ZN3satcoENS_7literalE(i32 %112)
  %114 = getelementptr inbounds nuw %"class.sat::literal", ptr %23, i32 0, i32 0
  store i32 %113, ptr %114, align 4
  call void @llvm.memcpy.p0.p0.i64(ptr align 4 %25, ptr align 4 %7, i64 4, i1 false), !tbaa.struct !99
  call void @llvm.memcpy.p0.p0.i64(ptr align 4 %27, ptr align 4 %8, i64 4, i1 false), !tbaa.struct !99
  %115 = getelementptr inbounds nuw %"class.sat::literal", ptr %27, i32 0, i32 0
  %116 = load i32, ptr %115, align 4
  %117 = call i32 @_ZN3satcoENS_7literalE(i32 %116)
  %118 = getelementptr inbounds nuw %"class.sat::literal", ptr %26, i32 0, i32 0
  store i32 %117, ptr %118, align 4
  %119 = getelementptr inbounds nuw %"class.sat::literal", ptr %21, i32 0, i32 0
  %120 = load i32, ptr %119, align 4
  %121 = getelementptr inbounds nuw %"class.sat::literal", ptr %23, i32 0, i32 0
  %122 = load i32, ptr %121, align 4
  %123 = getelementptr inbounds nuw %"class.sat::literal", ptr %25, i32 0, i32 0
  %124 = load i32, ptr %123, align 4
  %125 = getelementptr inbounds nuw %"class.sat::literal", ptr %26, i32 0, i32 0
  %126 = load i32, ptr %125, align 4
  %127 = call noundef zeroext i1 @_ZN3euf13th_euf_solver10add_clauseEN3sat7literalES2_S2_S2_PKNS_13th_proof_hintE(ptr noundef nonnull align 8 dereferenceable(108) %57, i32 %120, i32 %122, i32 %124, i32 %126, ptr noundef null)
  call void @llvm.memcpy.p0.p0.i64(ptr align 4 %29, ptr align 4 %5, i64 4, i1 false), !tbaa.struct !99
  %128 = getelementptr inbounds nuw %"class.sat::literal", ptr %29, i32 0, i32 0
  %129 = load i32, ptr %128, align 4
  %130 = call i32 @_ZN3satcoENS_7literalE(i32 %129)
  %131 = getelementptr inbounds nuw %"class.sat::literal", ptr %28, i32 0, i32 0
  store i32 %130, ptr %131, align 4
  call void @llvm.memcpy.p0.p0.i64(ptr align 4 %30, ptr align 4 %6, i64 4, i1 false), !tbaa.struct !99
  call void @llvm.memcpy.p0.p0.i64(ptr align 4 %32, ptr align 4 %7, i64 4, i1 false), !tbaa.struct !99
  %132 = getelementptr inbounds nuw %"class.sat::literal", ptr %32, i32 0, i32 0
  %133 = load i32, ptr %132, align 4
  %134 = call i32 @_ZN3satcoENS_7literalE(i32 %133)
  %135 = getelementptr inbounds nuw %"class.sat::literal", ptr %31, i32 0, i32 0
  store i32 %134, ptr %135, align 4
  call void @llvm.memcpy.p0.p0.i64(ptr align 4 %34, ptr align 4 %8, i64 4, i1 false), !tbaa.struct !99
  %136 = getelementptr inbounds nuw %"class.sat::literal", ptr %34, i32 0, i32 0
  %137 = load i32, ptr %136, align 4
  %138 = call i32 @_ZN3satcoENS_7literalE(i32 %137)
  %139 = getelementptr inbounds nuw %"class.sat::literal", ptr %33, i32 0, i32 0
  store i32 %138, ptr %139, align 4
  %140 = getelementptr inbounds nuw %"class.sat::literal", ptr %28, i32 0, i32 0
  %141 = load i32, ptr %140, align 4
  %142 = getelementptr inbounds nuw %"class.sat::literal", ptr %30, i32 0, i32 0
  %143 = load i32, ptr %142, align 4
  %144 = getelementptr inbounds nuw %"class.sat::literal", ptr %31, i32 0, i32 0
  %145 = load i32, ptr %144, align 4
  %146 = getelementptr inbounds nuw %"class.sat::literal", ptr %33, i32 0, i32 0
  %147 = load i32, ptr %146, align 4
  %148 = call noundef zeroext i1 @_ZN3euf13th_euf_solver10add_clauseEN3sat7literalES2_S2_S2_PKNS_13th_proof_hintE(ptr noundef nonnull align 8 dereferenceable(108) %57, i32 %141, i32 %143, i32 %145, i32 %147, ptr noundef null)
  call void @llvm.memcpy.p0.p0.i64(ptr align 4 %35, ptr align 4 %5, i64 4, i1 false), !tbaa.struct !99
  call void @llvm.memcpy.p0.p0.i64(ptr align 4 %37, ptr align 4 %6, i64 4, i1 false), !tbaa.struct !99
  %149 = getelementptr inbounds nuw %"class.sat::literal", ptr %37, i32 0, i32 0
  %150 = load i32, ptr %149, align 4
  %151 = call i32 @_ZN3satcoENS_7literalE(i32 %150)
  %152 = getelementptr inbounds nuw %"class.sat::literal", ptr %36, i32 0, i32 0
  store i32 %151, ptr %152, align 4
  call void @llvm.memcpy.p0.p0.i64(ptr align 4 %38, ptr align 4 %7, i64 4, i1 false), !tbaa.struct !99
  call void @llvm.memcpy.p0.p0.i64(ptr align 4 %39, ptr align 4 %8, i64 4, i1 false), !tbaa.struct !99
  %153 = getelementptr inbounds nuw %"class.sat::literal", ptr %35, i32 0, i32 0
  %154 = load i32, ptr %153, align 4
  %155 = getelementptr inbounds nuw %"class.sat::literal", ptr %36, i32 0, i32 0
  %156 = load i32, ptr %155, align 4
  %157 = getelementptr inbounds nuw %"class.sat::literal", ptr %38, i32 0, i32 0
  %158 = load i32, ptr %157, align 4
  %159 = getelementptr inbounds nuw %"class.sat::literal", ptr %39, i32 0, i32 0
  %160 = load i32, ptr %159, align 4
  %161 = call noundef zeroext i1 @_ZN3euf13th_euf_solver10add_clauseEN3sat7literalES2_S2_S2_PKNS_13th_proof_hintE(ptr noundef nonnull align 8 dereferenceable(108) %57, i32 %154, i32 %156, i32 %158, i32 %160, ptr noundef null)
  call void @llvm.memcpy.p0.p0.i64(ptr align 4 %40, ptr align 4 %5, i64 4, i1 false), !tbaa.struct !99
  call void @llvm.memcpy.p0.p0.i64(ptr align 4 %41, ptr align 4 %6, i64 4, i1 false), !tbaa.struct !99
  call void @llvm.memcpy.p0.p0.i64(ptr align 4 %43, ptr align 4 %7, i64 4, i1 false), !tbaa.struct !99
  %162 = getelementptr inbounds nuw %"class.sat::literal", ptr %43, i32 0, i32 0
  %163 = load i32, ptr %162, align 4
  %164 = call i32 @_ZN3satcoENS_7literalE(i32 %163)
  %165 = getelementptr inbounds nuw %"class.sat::literal", ptr %42, i32 0, i32 0
  store i32 %164, ptr %165, align 4
  call void @llvm.memcpy.p0.p0.i64(ptr align 4 %44, ptr align 4 %8, i64 4, i1 false), !tbaa.struct !99
  %166 = getelementptr inbounds nuw %"class.sat::literal", ptr %40, i32 0, i32 0
  %167 = load i32, ptr %166, align 4
  %168 = getelementptr inbounds nuw %"class.sat::literal", ptr %41, i32 0, i32 0
  %169 = load i32, ptr %168, align 4
  %170 = getelementptr inbounds nuw %"class.sat::literal", ptr %42, i32 0, i32 0
  %171 = load i32, ptr %170, align 4
  %172 = getelementptr inbounds nuw %"class.sat::literal", ptr %44, i32 0, i32 0
  %173 = load i32, ptr %172, align 4
  %174 = call noundef zeroext i1 @_ZN3euf13th_euf_solver10add_clauseEN3sat7literalES2_S2_S2_PKNS_13th_proof_hintE(ptr noundef nonnull align 8 dereferenceable(108) %57, i32 %167, i32 %169, i32 %171, i32 %173, ptr noundef null)
  call void @llvm.memcpy.p0.p0.i64(ptr align 4 %45, ptr align 4 %5, i64 4, i1 false), !tbaa.struct !99
  call void @llvm.memcpy.p0.p0.i64(ptr align 4 %46, ptr align 4 %6, i64 4, i1 false), !tbaa.struct !99
  call void @llvm.memcpy.p0.p0.i64(ptr align 4 %47, ptr align 4 %7, i64 4, i1 false), !tbaa.struct !99
  call void @llvm.memcpy.p0.p0.i64(ptr align 4 %49, ptr align 4 %8, i64 4, i1 false), !tbaa.struct !99
  %175 = getelementptr inbounds nuw %"class.sat::literal", ptr %49, i32 0, i32 0
  %176 = load i32, ptr %175, align 4
  %177 = call i32 @_ZN3satcoENS_7literalE(i32 %176)
  %178 = getelementptr inbounds nuw %"class.sat::literal", ptr %48, i32 0, i32 0
  store i32 %177, ptr %178, align 4
  %179 = getelementptr inbounds nuw %"class.sat::literal", ptr %45, i32 0, i32 0
  %180 = load i32, ptr %179, align 4
  %181 = getelementptr inbounds nuw %"class.sat::literal", ptr %46, i32 0, i32 0
  %182 = load i32, ptr %181, align 4
  %183 = getelementptr inbounds nuw %"class.sat::literal", ptr %47, i32 0, i32 0
  %184 = load i32, ptr %183, align 4
  %185 = getelementptr inbounds nuw %"class.sat::literal", ptr %48, i32 0, i32 0
  %186 = load i32, ptr %185, align 4
  %187 = call noundef zeroext i1 @_ZN3euf13th_euf_solver10add_clauseEN3sat7literalES2_S2_S2_PKNS_13th_proof_hintE(ptr noundef nonnull align 8 dereferenceable(108) %57, i32 %180, i32 %182, i32 %184, i32 %186, ptr noundef null)
  call void @llvm.memcpy.p0.p0.i64(ptr align 4 %50, ptr align 4 %5, i64 4, i1 false), !tbaa.struct !99
  call void @llvm.memcpy.p0.p0.i64(ptr align 4 %52, ptr align 4 %6, i64 4, i1 false), !tbaa.struct !99
  %188 = getelementptr inbounds nuw %"class.sat::literal", ptr %52, i32 0, i32 0
  %189 = load i32, ptr %188, align 4
  %190 = call i32 @_ZN3satcoENS_7literalE(i32 %189)
  %191 = getelementptr inbounds nuw %"class.sat::literal", ptr %51, i32 0, i32 0
  store i32 %190, ptr %191, align 4
  call void @llvm.memcpy.p0.p0.i64(ptr align 4 %54, ptr align 4 %7, i64 4, i1 false), !tbaa.struct !99
  %192 = getelementptr inbounds nuw %"class.sat::literal", ptr %54, i32 0, i32 0
  %193 = load i32, ptr %192, align 4
  %194 = call i32 @_ZN3satcoENS_7literalE(i32 %193)
  %195 = getelementptr inbounds nuw %"class.sat::literal", ptr %53, i32 0, i32 0
  store i32 %194, ptr %195, align 4
  call void @llvm.memcpy.p0.p0.i64(ptr align 4 %56, ptr align 4 %8, i64 4, i1 false), !tbaa.struct !99
  %196 = getelementptr inbounds nuw %"class.sat::literal", ptr %56, i32 0, i32 0
  %197 = load i32, ptr %196, align 4
  %198 = call i32 @_ZN3satcoENS_7literalE(i32 %197)
  %199 = getelementptr inbounds nuw %"class.sat::literal", ptr %55, i32 0, i32 0
  store i32 %198, ptr %199, align 4
  %200 = getelementptr inbounds nuw %"class.sat::literal", ptr %50, i32 0, i32 0
  %201 = load i32, ptr %200, align 4
  %202 = getelementptr inbounds nuw %"class.sat::literal", ptr %51, i32 0, i32 0
  %203 = load i32, ptr %202, align 4
  %204 = getelementptr inbounds nuw %"class.sat::literal", ptr %53, i32 0, i32 0
  %205 = load i32, ptr %204, align 4
  %206 = getelementptr inbounds nuw %"class.sat::literal", ptr %55, i32 0, i32 0
  %207 = load i32, ptr %206, align 4
  %208 = call noundef zeroext i1 @_ZN3euf13th_euf_solver10add_clauseEN3sat7literalES2_S2_S2_PKNS_13th_proof_hintE(ptr noundef nonnull align 8 dereferenceable(108) %57, i32 %201, i32 %203, i32 %205, i32 %207, ptr noundef null)
  call void @llvm.lifetime.end.p0(i64 4, ptr %8) #3
  call void @llvm.lifetime.end.p0(i64 4, ptr %7) #3
  call void @llvm.lifetime.end.p0(i64 4, ptr %6) #3
  call void @llvm.lifetime.end.p0(i64 4, ptr %5) #3
  ret void
}