; Function Attrs: mustprogress uwtable
define hidden void @_ZN2bv6solver16internalize_xor3EP3app(ptr noundef nonnull align 8 dereferenceable(640) %0, ptr noundef %1) local_unnamed_addr #3 align 2 {
  %3 = tail call i32 @_ZNK3euf13th_euf_solver12expr2literalEP4expr(ptr noundef nonnull align 8 dereferenceable(108) %0, ptr noundef %1)
  %4 = getelementptr inbounds nuw i8, ptr %1, i64 32
  %5 = load ptr, ptr %4, align 8, !tbaa !104
  %6 = tail call i32 @_ZNK3euf13th_euf_solver12expr2literalEP4expr(ptr noundef nonnull align 8 dereferenceable(108) %0, ptr noundef %5)
  %7 = getelementptr inbounds nuw i8, ptr %1, i64 40
  %8 = load ptr, ptr %7, align 8, !tbaa !104
  %9 = tail call i32 @_ZNK3euf13th_euf_solver12expr2literalEP4expr(ptr noundef nonnull align 8 dereferenceable(108) %0, ptr noundef %8)
  %10 = getelementptr inbounds nuw i8, ptr %1, i64 48
  %11 = load ptr, ptr %10, align 8, !tbaa !104
  %12 = tail call i32 @_ZNK3euf13th_euf_solver12expr2literalEP4expr(ptr noundef nonnull align 8 dereferenceable(108) %0, ptr noundef %11)
  %13 = xor i32 %3, 1
  %14 = tail call noundef zeroext i1 @_ZN3euf13th_euf_solver10add_clauseEN3sat7literalES2_S2_S2_PKNS_13th_proof_hintE(ptr noundef nonnull align 8 dereferenceable(108) %0, i32 %13, i32 %6, i32 %9, i32 %12, ptr noundef null)
  %15 = xor i32 %6, 1
  %16 = xor i32 %9, 1
  %17 = tail call noundef zeroext i1 @_ZN3euf13th_euf_solver10add_clauseEN3sat7literalES2_S2_S2_PKNS_13th_proof_hintE(ptr noundef nonnull align 8 dereferenceable(108) %0, i32 %13, i32 %15, i32 %16, i32 %12, ptr noundef null)
  %18 = xor i32 %12, 1
  %19 = tail call noundef zeroext i1 @_ZN3euf13th_euf_solver10add_clauseEN3sat7literalES2_S2_S2_PKNS_13th_proof_hintE(ptr noundef nonnull align 8 dereferenceable(108) %0, i32 %13, i32 %15, i32 %9, i32 %18, ptr noundef null)
  %20 = tail call noundef zeroext i1 @_ZN3euf13th_euf_solver10add_clauseEN3sat7literalES2_S2_S2_PKNS_13th_proof_hintE(ptr noundef nonnull align 8 dereferenceable(108) %0, i32 %13, i32 %6, i32 %16, i32 %18, ptr noundef null)
  %21 = tail call noundef zeroext i1 @_ZN3euf13th_euf_solver10add_clauseEN3sat7literalES2_S2_S2_PKNS_13th_proof_hintE(ptr noundef nonnull align 8 dereferenceable(108) %0, i32 %3, i32 %15, i32 %9, i32 %12, ptr noundef null)
  %22 = tail call noundef zeroext i1 @_ZN3euf13th_euf_solver10add_clauseEN3sat7literalES2_S2_S2_PKNS_13th_proof_hintE(ptr noundef nonnull align 8 dereferenceable(108) %0, i32 %3, i32 %6, i32 %16, i32 %12, ptr noundef null)
  %23 = tail call noundef zeroext i1 @_ZN3euf13th_euf_solver10add_clauseEN3sat7literalES2_S2_S2_PKNS_13th_proof_hintE(ptr noundef nonnull align 8 dereferenceable(108) %0, i32 %3, i32 %6, i32 %9, i32 %18, ptr noundef null)
  %24 = tail call noundef zeroext i1 @_ZN3euf13th_euf_solver10add_clauseEN3sat7literalES2_S2_S2_PKNS_13th_proof_hintE(ptr noundef nonnull align 8 dereferenceable(108) %0, i32 %3, i32 %15, i32 %16, i32 %18, ptr noundef null)
  ret void
}